target datalayout = "e-m:e-p270:32:32-p271:32:32-p272:64:64-i64:64-i128:128-f80:128-n8:16:32:64-S128"
target triple = "x86_64-pc-linux-gnu"

%"class.llvm::SMLoc" = type { ptr }

; Function Attrs: mustprogress nounwind uwtable
define internal noundef zeroext i1 @_ZN12_GLOBAL__N_110MasmParser29parseDirectiveCFIDefCfaOffsetEN4llvm5SMLocE(ptr noundef nonnull align 8 dereferenceable(1144) %0, ptr %1) #0 align 2 {
  %3 = alloca i1, align 1
  %4 = alloca %"class.llvm::SMLoc", align 8
  %5 = alloca ptr, align 8
  %6 = alloca i64, align 8
  %7 = alloca %"class.llvm::SMLoc", align 8
  %8 = getelementptr inbounds nuw %"class.llvm::SMLoc", ptr %4, i32 0, i32 0
  store ptr %1, ptr %8, align 8
  store ptr %0, ptr %5, align 8
  %9 = load ptr, ptr %5, align 8
  store i64 0, ptr %6, align 8
  %10 = load ptr, ptr %9, align 8
  %11 = getelementptr inbounds ptr, ptr %10, i64 32
  %12 = load ptr, ptr %11, align 8
  %13 = call noundef zeroext i1 %12(ptr noundef nonnull align 8 dereferenceable(1144) %9, ptr noundef nonnull align 8 dereferenceable(8) %6)
  br i1 %13, label %14, label %15

14:                                               ; preds = %2
  store i1 true, ptr %3, align 1
  br label %26

15:                                               ; preds = %2
  %16 = load ptr, ptr %9, align 8
  %17 = getelementptr inbounds ptr, ptr %16, i64 7
  %18 = load ptr, ptr %17, align 8
  %19 = call noundef nonnull align 8 dereferenceable(288) ptr %18(ptr noundef nonnull align 8 dereferenceable(1144) %9)
  %20 = load i64, ptr %6, align 8
  call void @llvm.memcpy.p0.p0.i64(ptr align 8 %7, ptr align 8 %4, i64 8, i1 false)
  %21 = getelementptr inbounds nuw %"class.llvm::SMLoc", ptr %7, i32 0, i32 0
  %22 = load ptr, ptr %21, align 8
  %23 = load ptr, ptr %19, align 8
  %24 = getelementptr inbounds ptr, ptr %23, i64 111
  %25 = load ptr, ptr %24, align 8
  call void %25(ptr noundef nonnull align 8 dereferenceable(288) %19, i64 noundef %20, ptr %22)
  store i1 false, ptr %3, align 1
  br label %26

26:                                               ; preds = %15, %14
  %27 = load i1, ptr %3, align 1
  ret i1 %27
}