; Function Attrs: mustprogress nounwind uwtable
define internal fastcc noundef zeroext i1 @_ZN12_GLOBAL__N_110MasmParser29parseDirectiveCFIDefCfaOffsetEN4llvm5SMLocE(ptr noundef nonnull align 8 dereferenceable(1144) %0, ptr %1) unnamed_addr #0 align 2 {
  %3 = alloca i64, align 8
  store i64 0, ptr %3, align 8
  %4 = load ptr, ptr %0, align 8
  %5 = getelementptr inbounds nuw i8, ptr %4, i64 256
  %6 = load ptr, ptr %5, align 8
  %7 = call noundef zeroext i1 %6(ptr noundef nonnull align 8 dereferenceable(1144) %0, ptr noundef nonnull align 8 dereferenceable(8) %3) #24
  br i1 %7, label %17, label %8

8:                                                ; preds = %2
  %9 = load ptr, ptr %0, align 8
  %10 = getelementptr inbounds nuw i8, ptr %9, i64 56
  %11 = load ptr, ptr %10, align 8
  %12 = call noundef nonnull align 8 dereferenceable(288) ptr %11(ptr noundef nonnull align 8 dereferenceable(1144) %0) #24
  %13 = load i64, ptr %3, align 8
  %14 = load ptr, ptr %12, align 8
  %15 = getelementptr inbounds nuw i8, ptr %14, i64 888
  %16 = load ptr, ptr %15, align 8
  call void %16(ptr noundef nonnull align 8 dereferenceable(288) %12, i64 noundef %13, ptr %1) #24
  br label %17

17:                                               ; preds = %2, %8
  ret i1 %7
}